; Function Attrs: nounwind uwtable
define void @Gia_ManQuantCollect(ptr noundef %0, i32 noundef %1, ptr noundef readonly captures(none) %2, ptr noundef %3, ptr noundef %4, ptr noundef %5, ptr noundef %6) local_unnamed_addr #2 {
  %8 = getelementptr i8, ptr %0, i64 980
  %9 = getelementptr i8, ptr %0, i64 984
  %.val12.i = load ptr, ptr %9, align 8, !tbaa !32
  %10 = getelementptr i8, ptr %.val12.i, i64 8
  %.val12.val.i = load ptr, ptr %10, align 8, !tbaa !33
  %11 = load i32, ptr %8, align 4, !tbaa !31
  %12 = icmp sgt i32 %11, 0
  br i1 %12, label %.lr.ph.preheader.i.i, label %Abc_TtClear.exit.i

.lr.ph.preheader.i.i:                             ; preds = %7
  %13 = zext nneg i32 %11 to i64
  %14 = shl nuw nsw i64 %13, 3
  tail call void @llvm.memset.p0.i64(ptr align 8 %.val12.val.i, i8 0, i64 %14, i1 false), !tbaa !38
  br label %Abc_TtClear.exit.i

Abc_TtClear.exit.i:                               ; preds = %.lr.ph.preheader.i.i, %7
  %15 = getelementptr i8, ptr %0, i64 1012
  %.val1315.i = load i32, ptr %15, align 4, !tbaa !36
  %16 = icmp sgt i32 %.val1315.i, 0
  br i1 %16, label %.lr.ph.i, label %Gia_ManQuantMarkUsedCis.exit

.lr.ph.i:                                         ; preds = %Abc_TtClear.exit.i
  %17 = getelementptr i8, ptr %0, i64 1016
  br label %18

18:                                               ; preds = %30, %.lr.ph.i
  %indvars.iv.i = phi i64 [ 0, %.lr.ph.i ], [ %indvars.iv.next.i, %30 ]
  %.val14.i = load ptr, ptr %17, align 8, !tbaa !37
  %19 = getelementptr inbounds nuw i32, ptr %.val14.i, i64 %indvars.iv.i
  %20 = load i32, ptr %19, align 4, !tbaa !29
  %21 = tail call i32 %2(ptr noundef %3, i32 noundef %20) #17
  %.not.i = icmp eq i32 %21, 0
  br i1 %.not.i, label %22, label %30

22:                                               ; preds = %18
  %23 = and i64 %indvars.iv.i, 63
  %24 = shl nuw i64 1, %23
  %25 = lshr i64 %indvars.iv.i, 6
  %26 = and i64 %25, 67108863
  %27 = getelementptr inbounds nuw i64, ptr %.val12.val.i, i64 %26
  %28 = load i64, ptr %27, align 8, !tbaa !38
  %29 = or i64 %28, %24
  store i64 %29, ptr %27, align 8, !tbaa !38
  br label %30

30:                                               ; preds = %22, %18
  %indvars.iv.next.i = add nuw nsw i64 %indvars.iv.i, 1
  %.val13.i = load i32, ptr %15, align 4, !tbaa !36
  %31 = sext i32 %.val13.i to i64
  %32 = icmp slt i64 %indvars.iv.next.i, %31
  br i1 %32, label %18, label %Gia_ManQuantMarkUsedCis.exit, !llvm.loop !50

Gia_ManQuantMarkUsedCis.exit:                     ; preds = %30, %Abc_TtClear.exit.i
  tail call void @Gia_ManIncrementTravId(ptr noundef nonnull %0) #17
  tail call void @Gia_ManQuantCollect_rec(ptr noundef nonnull %0, i32 noundef %1, ptr noundef %4, ptr noundef %5, ptr noundef %6)
  ret void
}